target datalayout = "e-m:e-p270:32:32-p271:32:32-p272:64:64-i64:64-i128:128-f80:128-n8:16:32:64-S128"
target triple = "x86_64-unknown-linux-gnu"

%"struct.arrow::compute::FunctionDoc" = type <{ %"class.std::__cxx11::basic_string", %"class.std::__cxx11::basic_string", %"class.std::vector", %"class.std::__cxx11::basic_string", i8, [7 x i8] }>
%"class.std::vector" = type { %"struct.std::_Vector_base" }
%"struct.std::_Vector_base" = type { %"struct.std::_Vector_base<std::__cxx11::basic_string<char>, std::allocator<std::__cxx11::basic_string<char>>>::_Vector_impl" }
%"struct.std::_Vector_base<std::__cxx11::basic_string<char>, std::allocator<std::__cxx11::basic_string<char>>>::_Vector_impl" = type { %"struct.std::_Vector_base<std::__cxx11::basic_string<char>, std::allocator<std::__cxx11::basic_string<char>>>::_Vector_impl_data" }
%"struct.std::_Vector_base<std::__cxx11::basic_string<char>, std::allocator<std::__cxx11::basic_string<char>>>::_Vector_impl_data" = type { ptr, ptr, ptr }
%"class.std::__cxx11::basic_string" = type { %"struct.std::__cxx11::basic_string<char>::_Alloc_hider", i64, %union.anon }
%"struct.std::__cxx11::basic_string<char>::_Alloc_hider" = type { ptr }
%union.anon = type { i64, [8 x i8] }
%"struct.arrow::compute::Arity" = type <{ i32, i8, [3 x i8] }>
%"class.arrow::compute::internal::CastFunction" = type <{ %"class.arrow::compute::ScalarFunction", %"class.std::vector.19", i32, [4 x i8] }>
%"class.arrow::compute::ScalarFunction" = type { %"class.arrow::compute::detail::FunctionImpl" }
%"class.arrow::compute::detail::FunctionImpl" = type { %"class.arrow::compute::Function", %"class.std::vector.14" }
%"class.arrow::compute::Function" = type { ptr, %"class.std::__cxx11::basic_string", i32, %"struct.arrow::compute::Arity", [4 x i8], %"struct.arrow::compute::FunctionDoc", ptr }
%"class.std::vector.14" = type { %"struct.std::_Vector_base.15" }
%"struct.std::_Vector_base.15" = type { %"struct.std::_Vector_base<arrow::compute::ScalarKernel, std::allocator<arrow::compute::ScalarKernel>>::_Vector_impl" }
%"struct.std::_Vector_base<arrow::compute::ScalarKernel, std::allocator<arrow::compute::ScalarKernel>>::_Vector_impl" = type { %"struct.std::_Vector_base<arrow::compute::ScalarKernel, std::allocator<arrow::compute::ScalarKernel>>::_Vector_impl_data" }
%"struct.std::_Vector_base<arrow::compute::ScalarKernel, std::allocator<arrow::compute::ScalarKernel>>::_Vector_impl_data" = type { ptr, ptr, ptr }
%"class.std::vector.19" = type { %"struct.std::_Vector_base.20" }
%"struct.std::_Vector_base.20" = type { %"struct.std::_Vector_base<arrow::Type::type, std::allocator<arrow::Type::type>>::_Vector_impl" }
%"struct.std::_Vector_base<arrow::Type::type, std::allocator<arrow::Type::type>>::_Vector_impl" = type { %"struct.std::_Vector_base<arrow::Type::type, std::allocator<arrow::Type::type>>::_Vector_impl_data" }
%"struct.std::_Vector_base<arrow::Type::type, std::allocator<arrow::Type::type>>::_Vector_impl_data" = type { ptr, ptr, ptr }

; Function Attrs: mustprogress nounwind uwtable
define linkonce_odr void @_ZNSt15__new_allocatorIN5arrow4Type4typeEEC2Ev(ptr noundef nonnull align 1 dereferenceable(1) %this) unnamed_addr #1 comdat align 2 {
entry:
  %this.addr = alloca ptr, align 8
  store ptr %this, ptr %this.addr, align 8
  ret void
}

; Function Attrs: mustprogress nounwind uwtable
define linkonce_odr void @_ZNSt12_Vector_baseIN5arrow4Type4typeESaIS2_EE17_Vector_impl_dataC2Ev(ptr noundef nonnull align 8 dereferenceable(24) %this) unnamed_addr #1 comdat align 2 {
entry:
  %this.addr = alloca ptr, align 8
  store ptr %this, ptr %this.addr, align 8
  %this1 = load ptr, ptr %this.addr, align 8
  %_M_start = getelementptr inbounds %"struct.std::_Vector_base<arrow::Type::type, std::allocator<arrow::Type::type>>::_Vector_impl_data", ptr %this1, i32 0, i32 0
  store ptr null, ptr %_M_start, align 8
  %_M_finish = getelementptr inbounds %"struct.std::_Vector_base<arrow::Type::type, std::allocator<arrow::Type::type>>::_Vector_impl_data", ptr %this1, i32 0, i32 1
  store ptr null, ptr %_M_finish, align 8
  %_M_end_of_storage = getelementptr inbounds %"struct.std::_Vector_base<arrow::Type::type, std::allocator<arrow::Type::type>>::_Vector_impl_data", ptr %this1, i32 0, i32 2
  store ptr null, ptr %_M_end_of_storage, align 8
  ret void
}

; Function Attrs: mustprogress nounwind uwtable
define linkonce_odr void @_ZNSaIN5arrow4Type4typeEEC2Ev(ptr noundef nonnull align 1 dereferenceable(1) %this) unnamed_addr #1 comdat align 2 {
entry:
  %this.addr = alloca ptr, align 8
  store ptr %this, ptr %this.addr, align 8
  %this1 = load ptr, ptr %this.addr, align 8
  call void @_ZNSt15__new_allocatorIN5arrow4Type4typeEEC2Ev(ptr noundef nonnull align 1 dereferenceable(1) %this1) #2
  ret void
}

; Function Attrs: mustprogress nounwind uwtable
define linkonce_odr void @_ZNSt12_Vector_baseIN5arrow4Type4typeESaIS2_EE12_Vector_implC2Ev(ptr noundef nonnull align 8 dereferenceable(24) %this) unnamed_addr #1 comdat align 2 {
entry:
  %this.addr = alloca ptr, align 8
  store ptr %this, ptr %this.addr, align 8
  %this1 = load ptr, ptr %this.addr, align 8
  call void @_ZNSaIN5arrow4Type4typeEEC2Ev(ptr noundef nonnull align 1 dereferenceable(1) %this1) #2
  call void @_ZNSt12_Vector_baseIN5arrow4Type4typeESaIS2_EE17_Vector_impl_dataC2Ev(ptr noundef nonnull align 8 dereferenceable(24) %this1) #2
  ret void
}

; Function Attrs: mustprogress nounwind uwtable
define linkonce_odr void @_ZNSt12_Vector_baseIN5arrow4Type4typeESaIS2_EEC2Ev(ptr noundef nonnull align 8 dereferenceable(24) %this) unnamed_addr #1 comdat align 2 {
entry:
  %this.addr = alloca ptr, align 8
  store ptr %this, ptr %this.addr, align 8
  %this1 = load ptr, ptr %this.addr, align 8
  %_M_impl = getelementptr inbounds %"struct.std::_Vector_base.20", ptr %this1, i32 0, i32 0
  call void @_ZNSt12_Vector_baseIN5arrow4Type4typeESaIS2_EE12_Vector_implC2Ev(ptr noundef nonnull align 8 dereferenceable(24) %_M_impl) #2
  ret void
}

; Function Attrs: mustprogress nounwind uwtable
define linkonce_odr void @_ZN5arrow7compute5ArityC2Eib(ptr noundef nonnull align 4 dereferenceable(5) %this, i32 noundef %num_args, i1 noundef zeroext %is_varargs) unnamed_addr #1 comdat align 2 {
entry:
  %this.addr = alloca ptr, align 8
  %num_args.addr = alloca i32, align 4
  %is_varargs.addr = alloca i8, align 1
  store ptr %this, ptr %this.addr, align 8
  store i32 %num_args, ptr %num_args.addr, align 4
  %frombool = zext i1 %is_varargs to i8
  store i8 %frombool, ptr %is_varargs.addr, align 1
  %this1 = load ptr, ptr %this.addr, align 8
  %num_args2 = getelementptr inbounds %"struct.arrow::compute::Arity", ptr %this1, i32 0, i32 0
  %0 = load i32, ptr %num_args.addr, align 4
  store i32 %0, ptr %num_args2, align 4
  %is_varargs3 = getelementptr inbounds %"struct.arrow::compute::Arity", ptr %this1, i32 0, i32 1
  %1 = load i8, ptr %is_varargs.addr, align 1
  %tobool = trunc i8 %1 to i1
  %frombool4 = zext i1 %tobool to i8
  store i8 %frombool4, ptr %is_varargs3, align 4
  ret void
}

; Function Attrs: mustprogress nounwind uwtable
define linkonce_odr void @_ZNSt6vectorIN5arrow4Type4typeESaIS2_EEC2Ev(ptr noundef nonnull align 8 dereferenceable(24) %this) unnamed_addr #1 comdat align 2 {
entry:
  %this.addr = alloca ptr, align 8
  store ptr %this, ptr %this.addr, align 8
  %this1 = load ptr, ptr %this.addr, align 8
  call void @_ZNSt12_Vector_baseIN5arrow4Type4typeESaIS2_EEC2Ev(ptr noundef nonnull align 8 dereferenceable(24) %this1) #2
  ret void
}

; Function Attrs: mustprogress uwtable
define linkonce_odr i64 @_ZN5arrow7compute5Arity5UnaryEv() #4 comdat align 2 {
entry:
  %retval = alloca %"struct.arrow::compute::Arity", align 4
  call void @_ZN5arrow7compute5ArityC2Eib(ptr noundef nonnull align 4 dereferenceable(5) %retval, i32 noundef 1, i1 noundef zeroext false)
  %0 = load i64, ptr %retval, align 4
  ret i64 %0
}

; Function Attrs: mustprogress uwtable
define void @_ZN5arrow7compute8internal12CastFunctionC2ENSt7__cxx1112basic_stringIcSt11char_traitsIcESaIcEEENS_4Type4typeE(ptr noundef nonnull align 8 dereferenceable(244) %this, ptr noundef %name, i32 noundef %out_type_id) unnamed_addr #4 align 2 personality ptr @__gxx_personality_v0 {
entry:
  %this.addr = alloca ptr, align 8
  %name.indirect_addr = alloca ptr, align 8
  %out_type_id.addr = alloca i32, align 4
  %agg.tmp = alloca %"class.std::__cxx11::basic_string", align 8
  %ref.tmp = alloca %"struct.arrow::compute::Arity", align 4
  %exn.slot = alloca ptr, align 8
  %ehselector.slot = alloca i32, align 4
  %agg.tmp2 = alloca %"struct.arrow::compute::FunctionDoc", align 8
  store ptr %this, ptr %this.addr, align 8
  store ptr %name, ptr %name.indirect_addr, align 8
  store i32 %out_type_id, ptr %out_type_id.addr, align 4
  %this1 = load ptr, ptr %this.addr, align 8
  call void @_ZNSt7__cxx1112basic_stringIcSt11char_traitsIcESaIcEEC1EOS4_(ptr noundef nonnull align 8 dereferenceable(32) %agg.tmp, ptr noundef nonnull align 8 dereferenceable(32) %name) #2
  %call = invoke i64 @_ZN5arrow7compute5Arity5UnaryEv()
          to label %invoke.cont unwind label %lpad

invoke.cont:                                      ; preds = %entry
  store i64 %call, ptr %ref.tmp, align 4
  %call4 = invoke noundef nonnull align 8 dereferenceable(121) ptr @_ZN5arrow7compute11FunctionDoc5EmptyEv()
          to label %invoke.cont3 unwind label %lpad

invoke.cont3:                                     ; preds = %invoke.cont
  invoke void @_ZN5arrow7compute11FunctionDocC2ERKS1_(ptr noundef nonnull align 8 dereferenceable(121) %agg.tmp2, ptr noundef nonnull align 8 dereferenceable(121) %call4)
          to label %invoke.cont5 unwind label %lpad

invoke.cont5:                                     ; preds = %invoke.cont3
  invoke void @_ZN5arrow7compute14ScalarFunctionC2ENSt7__cxx1112basic_stringIcSt11char_traitsIcESaIcEEERKNS0_5ArityENS0_11FunctionDocEPKNS0_15FunctionOptionsE(ptr noundef nonnull align 8 dereferenceable(216) %this1, ptr noundef %agg.tmp, ptr noundef nonnull align 4 dereferenceable(5) %ref.tmp, ptr noundef %agg.tmp2, ptr noundef null)
          to label %invoke.cont7 unwind label %lpad6

invoke.cont7:                                     ; preds = %invoke.cont5
  call void @_ZN5arrow7compute11FunctionDocD2Ev(ptr noundef nonnull align 8 dereferenceable(121) %agg.tmp2) #2
  call void @_ZNSt7__cxx1112basic_stringIcSt11char_traitsIcESaIcEED1Ev(ptr noundef nonnull align 8 dereferenceable(32) %agg.tmp) #2
  store ptr getelementptr inbounds ({ [11 x ptr] }, ptr @_ZTVN5arrow7compute8internal12CastFunctionE, i32 0, i32 0, i32 2), ptr %this1, align 8
  %in_type_ids_ = getelementptr inbounds %"class.arrow::compute::internal::CastFunction", ptr %this1, i32 0, i32 1
  call void @_ZNSt6vectorIN5arrow4Type4typeESaIS2_EEC2Ev(ptr noundef nonnull align 8 dereferenceable(24) %in_type_ids_) #2
  %out_type_id_ = getelementptr inbounds %"class.arrow::compute::internal::CastFunction", ptr %this1, i32 0, i32 2
  %0 = load i32, ptr %out_type_id.addr, align 4
  store i32 %0, ptr %out_type_id_, align 8
  ret void

lpad:                                             ; preds = %invoke.cont3, %invoke.cont, %entry
  %1 = landingpad { ptr, i32 }
          cleanup
  %2 = extractvalue { ptr, i32 } %1, 0
  store ptr %2, ptr %exn.slot, align 8
  %3 = extractvalue { ptr, i32 } %1, 1
  store i32 %3, ptr %ehselector.slot, align 4
  br label %ehcleanup

lpad6:                                            ; preds = %invoke.cont5
  %4 = landingpad { ptr, i32 }
          cleanup
  %5 = extractvalue { ptr, i32 } %4, 0
  store ptr %5, ptr %exn.slot, align 8
  %6 = extractvalue { ptr, i32 } %4, 1
  store i32 %6, ptr %ehselector.slot, align 4
  call void @_ZN5arrow7compute11FunctionDocD2Ev(ptr noundef nonnull align 8 dereferenceable(121) %agg.tmp2) #2
  br label %ehcleanup

ehcleanup:                                        ; preds = %lpad6, %lpad
  call void @_ZNSt7__cxx1112basic_stringIcSt11char_traitsIcESaIcEED1Ev(ptr noundef nonnull align 8 dereferenceable(32) %agg.tmp) #2
  br label %eh.resume

eh.resume:                                        ; preds = %ehcleanup
  %exn = load ptr, ptr %exn.slot, align 8
  %sel = load i32, ptr %ehselector.slot, align 4
  %lpad.val = insertvalue { ptr, i32 } poison, ptr %exn, 0
  %lpad.val8 = insertvalue { ptr, i32 } %lpad.val, i32 %sel, 1
  resume { ptr, i32 } %lpad.val8
}