; Function Attrs: mustprogress uwtable
define void @_ZN5arrow7compute8internal12CastFunctionC2ENSt7__cxx1112basic_stringIcSt11char_traitsIcESaIcEEENS_4Type4typeE(ptr noundef nonnull align 8 dereferenceable(244) %this, ptr noundef nonnull %name, i32 noundef %out_type_id) unnamed_addr #3 align 2 personality ptr @__gxx_personality_v0 {
invoke.cont:
  %agg.tmp = alloca %"class.std::__cxx11::basic_string", align 8
  %ref.tmp = alloca %"struct.arrow::compute::Arity", align 8
  %agg.tmp2 = alloca %"struct.arrow::compute::FunctionDoc", align 8
  call void @_ZNSt7__cxx1112basic_stringIcSt11char_traitsIcESaIcEEC1EOS4_(ptr noundef nonnull align 8 dereferenceable(32) %agg.tmp, ptr noundef nonnull align 8 dereferenceable(32) %name) #21
  store i64 1, ptr %ref.tmp, align 8
  %call4 = invoke noundef nonnull align 8 dereferenceable(121) ptr @_ZN5arrow7compute11FunctionDoc5EmptyEv()
          to label %invoke.cont3 unwind label %lpad

invoke.cont3:                                     ; preds = %invoke.cont
  invoke void @_ZN5arrow7compute11FunctionDocC2ERKS1_(ptr noundef nonnull align 8 dereferenceable(121) %agg.tmp2, ptr noundef nonnull align 8 dereferenceable(121) %call4)
          to label %invoke.cont5 unwind label %lpad

invoke.cont5:                                     ; preds = %invoke.cont3
  invoke void @_ZN5arrow7compute14ScalarFunctionC2ENSt7__cxx1112basic_stringIcSt11char_traitsIcESaIcEEERKNS0_5ArityENS0_11FunctionDocEPKNS0_15FunctionOptionsE(ptr noundef nonnull align 8 dereferenceable(216) %this, ptr noundef nonnull %agg.tmp, ptr noundef nonnull align 4 dereferenceable(5) %ref.tmp, ptr noundef nonnull %agg.tmp2, ptr noundef null)
          to label %invoke.cont7 unwind label %lpad6

invoke.cont7:                                     ; preds = %invoke.cont5
  %options_class.i = getelementptr inbounds i8, ptr %agg.tmp2, i64 88
  call void @_ZNSt7__cxx1112basic_stringIcSt11char_traitsIcESaIcEED1Ev(ptr noundef nonnull align 8 dereferenceable(32) %options_class.i) #21
  %arg_names.i = getelementptr inbounds i8, ptr %agg.tmp2, i64 64
  %0 = load ptr, ptr %arg_names.i, align 8
  %_M_finish.i.i = getelementptr inbounds i8, ptr %agg.tmp2, i64 72
  %1 = load ptr, ptr %_M_finish.i.i, align 8
  %cmp.not3.i.i.i.i.i = icmp eq ptr %0, %1
  br i1 %cmp.not3.i.i.i.i.i, label %invoke.cont.i.i, label %for.body.i.i.i.i.i

for.body.i.i.i.i.i:                               ; preds = %invoke.cont7, %for.body.i.i.i.i.i
  %__first.addr.04.i.i.i.i.i = phi ptr [ %incdec.ptr.i.i.i.i.i, %for.body.i.i.i.i.i ], [ %0, %invoke.cont7 ]
  call void @_ZNSt7__cxx1112basic_stringIcSt11char_traitsIcESaIcEED1Ev(ptr noundef nonnull align 8 dereferenceable(32) %__first.addr.04.i.i.i.i.i) #21
  %incdec.ptr.i.i.i.i.i = getelementptr inbounds i8, ptr %__first.addr.04.i.i.i.i.i, i64 32
  %cmp.not.i.i.i.i.i = icmp eq ptr %incdec.ptr.i.i.i.i.i, %1
  br i1 %cmp.not.i.i.i.i.i, label %invoke.contthread-pre-split.i.i, label %for.body.i.i.i.i.i, !llvm.loop !4

invoke.contthread-pre-split.i.i:                  ; preds = %for.body.i.i.i.i.i
  %.pr.i.i = load ptr, ptr %arg_names.i, align 8
  br label %invoke.cont.i.i

invoke.cont.i.i:                                  ; preds = %invoke.contthread-pre-split.i.i, %invoke.cont7
  %2 = phi ptr [ %.pr.i.i, %invoke.contthread-pre-split.i.i ], [ %0, %invoke.cont7 ]
  %tobool.not.i.i.i.i = icmp eq ptr %2, null
  br i1 %tobool.not.i.i.i.i, label %_ZN5arrow7compute11FunctionDocD2Ev.exit, label %if.then.i.i.i.i

if.then.i.i.i.i:                                  ; preds = %invoke.cont.i.i
  call void @_ZdlPv(ptr noundef nonnull %2) #23
  br label %_ZN5arrow7compute11FunctionDocD2Ev.exit

_ZN5arrow7compute11FunctionDocD2Ev.exit:          ; preds = %invoke.cont.i.i, %if.then.i.i.i.i
  %description.i = getelementptr inbounds i8, ptr %agg.tmp2, i64 32
  call void @_ZNSt7__cxx1112basic_stringIcSt11char_traitsIcESaIcEED1Ev(ptr noundef nonnull align 8 dereferenceable(32) %description.i) #21
  call void @_ZNSt7__cxx1112basic_stringIcSt11char_traitsIcESaIcEED1Ev(ptr noundef nonnull align 8 dereferenceable(32) %agg.tmp2) #21
  call void @_ZNSt7__cxx1112basic_stringIcSt11char_traitsIcESaIcEED1Ev(ptr noundef nonnull align 8 dereferenceable(32) %agg.tmp) #21
  store ptr getelementptr inbounds ({ [11 x ptr] }, ptr @_ZTVN5arrow7compute8internal12CastFunctionE, i64 0, i32 0, i64 2), ptr %this, align 8
  %in_type_ids_ = getelementptr inbounds i8, ptr %this, i64 216
  call void @llvm.memset.p0.i64(ptr noundef nonnull align 8 dereferenceable(24) %in_type_ids_, i8 0, i64 24, i1 false)
  %out_type_id_ = getelementptr inbounds i8, ptr %this, i64 240
  store i32 %out_type_id, ptr %out_type_id_, align 8
  ret void

lpad:                                             ; preds = %invoke.cont3, %invoke.cont
  %3 = landingpad { ptr, i32 }
          cleanup
  br label %ehcleanup

lpad6:                                            ; preds = %invoke.cont5
  %4 = landingpad { ptr, i32 }
          cleanup
  call void @_ZN5arrow7compute11FunctionDocD2Ev(ptr noundef nonnull align 8 dereferenceable(121) %agg.tmp2) #21
  br label %ehcleanup

ehcleanup:                                        ; preds = %lpad6, %lpad
  %.pn = phi { ptr, i32 } [ %4, %lpad6 ], [ %3, %lpad ]
  call void @_ZNSt7__cxx1112basic_stringIcSt11char_traitsIcESaIcEED1Ev(ptr noundef nonnull align 8 dereferenceable(32) %agg.tmp) #21
  resume { ptr, i32 } %.pn
}